; Function Attrs: mustprogress nounwind uwtable
define void @_ZN4LIEF5dwarf9ParameterD2Ev(ptr noundef nonnull align 8 captures(none) dereferenceable(16) initializes((0, 8)) %0) unnamed_addr #3 align 2 {
  store ptr getelementptr inbounds nuw inrange(-16, 16) (i8, ptr @_ZTVN4LIEF5dwarf9ParameterE, i64 16), ptr %0, align 8, !tbaa !32
  %2 = getelementptr inbounds nuw i8, ptr %0, i64 8
  %3 = load ptr, ptr %2, align 8, !tbaa !34
  %.not.i = icmp eq ptr %3, null
  br i1 %.not.i, label %_ZNSt10unique_ptrIN4LIEF5dwarf7details9ParameterESt14default_deleteIS3_EED2Ev.exit, label %_ZNKSt14default_deleteIN4LIEF5dwarf7details9ParameterEEclEPS3_.exit.i

_ZNKSt14default_deleteIN4LIEF5dwarf7details9ParameterEEclEPS3_.exit.i: ; preds = %1
  tail call void @_ZdlPvm(ptr noundef nonnull %3, i64 noundef 1) #24
  br label %_ZNSt10unique_ptrIN4LIEF5dwarf7details9ParameterESt14default_deleteIS3_EED2Ev.exit

_ZNSt10unique_ptrIN4LIEF5dwarf7details9ParameterESt14default_deleteIS3_EED2Ev.exit: ; preds = %1, %_ZNKSt14default_deleteIN4LIEF5dwarf7details9ParameterEEclEPS3_.exit.i
  store ptr null, ptr %2, align 8, !tbaa !34
  ret void
}